; ModuleID = '7/599.c'
source_filename = "7/599.c"
target datalayout = "e-m:e-p270:32:32-p271:32:32-p272:64:64-i64:64-f80:128-n8:16:32:64-S128"
target triple = "x86_64-pc-linux-gnu"

@.str = private unnamed_addr constant [7 x i8] c"%s%s%s\00", align 1
@.str.1 = private unnamed_addr constant [3 x i8] c"%c\00", align 1
@.str.2 = private unnamed_addr constant [3 x i8] c"%s\00", align 1
@.str.3 = private unnamed_addr constant [4 x i8] c"%s\0A\00", align 1

; Function Attrs: noinline nounwind uwtable
define dso_local i32 @main() #0 {
  %1 = alloca i32, align 4
  %2 = alloca [600 x i8], align 16
  %3 = alloca [256 x i8], align 16
  %4 = alloca [256 x i8], align 16
  %5 = alloca i32, align 4
  %6 = alloca i32, align 4
  %7 = alloca i32, align 4
  %8 = alloca i32, align 4
  %9 = alloca i32, align 4
  %10 = alloca i32, align 4
  %11 = alloca i32, align 4
  store i32 0, i32* %1, align 4
  %12 = getelementptr inbounds [600 x i8], [600 x i8]* %2, i64 0, i64 0
  %13 = getelementptr inbounds [256 x i8], [256 x i8]* %3, i64 0, i64 0
  %14 = getelementptr inbounds [256 x i8], [256 x i8]* %4, i64 0, i64 0
  %15 = call i32 (i8*, ...) @__isoc99_scanf(i8* getelementptr inbounds ([7 x i8], [7 x i8]* @.str, i64 0, i64 0), i8* %12, i8* %13, i8* %14)
  %16 = getelementptr inbounds [600 x i8], [600 x i8]* %2, i64 0, i64 0
  %17 = call i64 @strlen(i8* %16) #3
  %18 = trunc i64 %17 to i32
  store i32 %18, i32* %5, align 4
  %19 = getelementptr inbounds [256 x i8], [256 x i8]* %3, i64 0, i64 0
  %20 = call i64 @strlen(i8* %19) #3
  %21 = trunc i64 %20 to i32
  store i32 %21, i32* %6, align 4
  store i32 1, i32* %9, align 4
  store i32 0, i32* %10, align 4
  store i32 0, i32* %7, align 4
  br label %22

22:                                               ; preds = %74, %0
  %23 = load i32, i32* %7, align 4
  %24 = load i32, i32* %5, align 4
  %25 = icmp slt i32 %23, %24
  br i1 %25, label %26, label %77

26:                                               ; preds = %22
  store i32 0, i32* %11, align 4
  %27 = load i32, i32* %7, align 4
  %28 = sext i32 %27 to i64
  %29 = getelementptr inbounds [600 x i8], [600 x i8]* %2, i64 0, i64 %28
  %30 = load i8, i8* %29, align 1
  %31 = sext i8 %30 to i32
  %32 = load i32, i32* %11, align 4
  %33 = sext i32 %32 to i64
  %34 = getelementptr inbounds [256 x i8], [256 x i8]* %3, i64 0, i64 %33
  %35 = load i8, i8* %34, align 1
  %36 = sext i8 %35 to i32
  %37 = icmp eq i32 %31, %36
  br i1 %37, label %38, label %68

38:                                               ; preds = %26
  %39 = load i32, i32* %7, align 4
  store i32 %39, i32* %8, align 4
  store i32 1, i32* %11, align 4
  br label %40

40:                                               ; preds = %64, %38
  %41 = load i32, i32* %11, align 4
  %42 = load i32, i32* %6, align 4
  %43 = icmp slt i32 %41, %42
  br i1 %43, label %44, label %67

44:                                               ; preds = %40
  %45 = load i32, i32* %7, align 4
  %46 = add nsw i32 %45, 1
  %47 = sext i32 %46 to i64
  %48 = getelementptr inbounds [600 x i8], [600 x i8]* %2, i64 0, i64 %47
  %49 = load i8, i8* %48, align 1
  %50 = sext i8 %49 to i32
  %51 = load i32, i32* %11, align 4
  %52 = sext i32 %51 to i64
  %53 = getelementptr inbounds [256 x i8], [256 x i8]* %3, i64 0, i64 %52
  %54 = load i8, i8* %53, align 1
  %55 = sext i8 %54 to i32
  %56 = icmp eq i32 %50, %55
  br i1 %56, label %57, label %62

57:                                               ; preds = %44
  %58 = load i32, i32* %7, align 4
  %59 = add nsw i32 %58, 1
  store i32 %59, i32* %7, align 4
  %60 = load i32, i32* %9, align 4
  %61 = add nsw i32 %60, 1
  store i32 %61, i32* %9, align 4
  br label %63

62:                                               ; preds = %44
  br label %67

63:                                               ; preds = %57
  br label %64

64:                                               ; preds = %63
  %65 = load i32, i32* %11, align 4
  %66 = add nsw i32 %65, 1
  store i32 %66, i32* %11, align 4
  br label %40

67:                                               ; preds = %62, %40
  br label %68

68:                                               ; preds = %67, %26
  %69 = load i32, i32* %9, align 4
  %70 = load i32, i32* %6, align 4
  %71 = icmp eq i32 %69, %70
  br i1 %71, label %72, label %73

72:                                               ; preds = %68
  br label %77

73:                                               ; preds = %68
  br label %74

74:                                               ; preds = %73
  %75 = load i32, i32* %7, align 4
  %76 = add nsw i32 %75, 1
  store i32 %76, i32* %7, align 4
  br label %22

77:                                               ; preds = %72, %22
  %78 = load i32, i32* %9, align 4
  %79 = load i32, i32* %6, align 4
  %80 = icmp eq i32 %78, %79
  br i1 %80, label %81, label %117

81:                                               ; preds = %77
  store i32 0, i32* %7, align 4
  br label %82

82:                                               ; preds = %93, %81
  %83 = load i32, i32* %7, align 4
  %84 = load i32, i32* %8, align 4
  %85 = icmp slt i32 %83, %84
  br i1 %85, label %86, label %96

86:                                               ; preds = %82
  %87 = load i32, i32* %7, align 4
  %88 = sext i32 %87 to i64
  %89 = getelementptr inbounds [600 x i8], [600 x i8]* %2, i64 0, i64 %88
  %90 = load i8, i8* %89, align 1
  %91 = sext i8 %90 to i32
  %92 = call i32 (i8*, ...) @printf(i8* getelementptr inbounds ([3 x i8], [3 x i8]* @.str.1, i64 0, i64 0), i32 %91)
  br label %93

93:                                               ; preds = %86
  %94 = load i32, i32* %7, align 4
  %95 = add nsw i32 %94, 1
  store i32 %95, i32* %7, align 4
  br label %82

96:                                               ; preds = %82
  %97 = getelementptr inbounds [256 x i8], [256 x i8]* %4, i64 0, i64 0
  %98 = call i32 (i8*, ...) @printf(i8* getelementptr inbounds ([3 x i8], [3 x i8]* @.str.2, i64 0, i64 0), i8* %97)
  %99 = load i32, i32* %8, align 4
  %100 = load i32, i32* %6, align 4
  %101 = add nsw i32 %99, %100
  store i32 %101, i32* %7, align 4
  br label %102

102:                                              ; preds = %113, %96
  %103 = load i32, i32* %7, align 4
  %104 = load i32, i32* %5, align 4
  %105 = icmp slt i32 %103, %104
  br i1 %105, label %106, label %116

106:                                              ; preds = %102
  %107 = load i32, i32* %7, align 4
  %108 = sext i32 %107 to i64
  %109 = getelementptr inbounds [600 x i8], [600 x i8]* %2, i64 0, i64 %108
  %110 = load i8, i8* %109, align 1
  %111 = sext i8 %110 to i32
  %112 = call i32 (i8*, ...) @printf(i8* getelementptr inbounds ([3 x i8], [3 x i8]* @.str.1, i64 0, i64 0), i32 %111)
  br label %113

113:                                              ; preds = %106
  %114 = load i32, i32* %7, align 4
  %115 = add nsw i32 %114, 1
  store i32 %115, i32* %7, align 4
  br label %102

116:                                              ; preds = %102
  br label %120

117:                                              ; preds = %77
  %118 = getelementptr inbounds [600 x i8], [600 x i8]* %2, i64 0, i64 0
  %119 = call i32 (i8*, ...) @printf(i8* getelementptr inbounds ([4 x i8], [4 x i8]* @.str.3, i64 0, i64 0), i8* %118)
  br label %120

120:                                              ; preds = %117, %116
  ret i32 0
}

declare dso_local i32 @__isoc99_scanf(i8*, ...) #1

; Function Attrs: nounwind readonly
declare dso_local i64 @strlen(i8*) #2

declare dso_local i32 @printf(i8*, ...) #1


!llvm.module.flags = !{!0}
!llvm.ident = !{!1}

!0 = !{i32 1, !"wchar_size", i32 4}
!1 = !{!"clang version 10.0.0-4ubuntu1 "}
